(dp1
S'frame'
p2
I0
sS'preview_placement'
p3
I1
sS'previewWindowVisible'
p4
I00
sS'scripts'
p5
(lp6
(dp7
S'workdir'
p8
S''
sS'group'
p9
NsS'splits'
p10
(NI-300
I00
tp11
sS'f_encoding'
p12
S'latin1'
p13
sS'text'
p14
VLoadPlugin("E:\u005cgitpri\u005cBDToolset\u005cAvsPmod\u005cavs\u005cplugins\u005cffms2.dll")\u000affvideosource("G:\u005cREMUX\u005c0001\u005cPlanet.Earth.EP05.2006.Ric.mkv")\u000a
p15
sS'selected'
p16
I01
sS'group_frame'
p17
I0
sS'last_length'
p18
I73173
sS'current_frame'
p19
I0
sS'hash'
p20
NsS'name'
p21
S''
sasS'lastclosed'
p22
NsS'bookmarkDict'
p23
(dp24
sS'bookmarks'
p25
(lp26
s.