(dp1
S'frame'
p2
I18104
sS'preview_placement'
p3
I1
sS'previewWindowVisible'
p4
I00
sS'scripts'
p5
(lp6
(dp7
S'workdir'
p8
VE:\u005cgitpri\u005cBDToolset\u005cAvsPmod\u005cavs
p9
sS'group'
p10
NsS'splits'
p11
(NI-300
I01
tp12
sS'f_encoding'
p13
S'utf8'
p14
sS'text'
p15
V\u000aPATH = "E:\u005cgitpri\u005cBDToolset\u005cAvsPmod\u005cavs\u005cplugins\u005c"\u000aLoadPlugin(PATH + "mvtools2.dll")\u000aLoadPlugin(PATH + "mt_masktools-26.dll")\u000aLoadPlugin(PATH + "ffms2.dll")\u000aImport(PATH + "SMDegrain v.2.2d.avsi")\u000a\u000affvideosource("G:\u005cREMUX\u005c0001\u005cPlanet.Earth.EP05.2006.Ric.mkv")\u000aSpline64Resize(1280, 720)\u000a#smdegrain()\u000a#smdegrain()\u000a
p16
sS'selected'
p17
I01
sS'group_frame'
p18
I0
sS'last_length'
p19
I73173
sS'current_frame'
p20
I18104
sS'hash'
p21
S'786f3cb5b926e4b483bfec5da78879c3'
p22
sS'name'
p23
VE:\u005cgitpri\u005cBDToolset\u005cAvsPmod\u005cavs\u005csample.avs
p24
sasS'lastclosed'
p25
(dp26
g8
VY:\u005c
p27
sg10
Nsg11
(I-737
I-300
I01
tp28
sg13
S'latin1'
p29
sg15
V\u000aPATH = "E:\u005cgitpri\u005cBDToolset\u005cAvsPmod\u005cavs\u005cplugins\u005c"\u000aLoadPlugin(PATH + "mvtools2.dll")\u000aLoadPlugin(PATH + "mt_masktools-26.dll")\u000aLoadPlugin(PATH + "ffms2.dll")\u000aImport(PATH + "SMDegrain v.2.2d.avsi")\u000a\u000affvideosource("G:\u005cREMUX\u005c0001\u005cPlanet.Earth.EP05.2006.Ric.mkv")\u000aSpline64Resize(1280, 720)\u000asmdegrain()\u000asmdegrain()\u000a
p30
sg17
I01
sg18
I0
sg19
I73173
sg20
I44170
sg21
Nsg23
Vabc.avs
p31
ssS'bookmarkDict'
p32
(dp33
sS'bookmarks'
p34
(lp35
s.