(dp1
S'frame'
p2
I23041
sS'preview_placement'
p3
I1
sS'previewWindowVisible'
p4
I00
sS'scripts'
p5
(lp6
(dp7
S'workdir'
p8
VG:\u005cREMUX\u005c0001
p9
sS'group'
p10
NsS'splits'
p11
(I-621
I-300
I00
tp12
sS'f_encoding'
p13
S'utf8'
p14
sS'text'
p15
V\u000aPATH = "E:\u005cgitpri\u005cBDToolset\u005cAvsPmod\u005cavs\u005cplugins\u005c"\u000aLoadPlugin(PATH + "mvtools2.dll")\u000aLoadPlugin(PATH + "mt_masktools-26.dll")\u000aLoadPlugin(PATH + "ffms2.dll")\u000aImport(PATH + "SMDegrain v.2.2d.avsi")\u000a\u000avideo = "Planet.Earth.EP05.2006.Ric.mkv"\u000a\u000aSetMemoryMax(2500)\u000affvideosource(video)\u000aSpline64Resize(1280, 720)\u000asmdegrain(tr = 6)\u000a
p16
sS'selected'
p17
I01
sS'group_frame'
p18
I0
sS'last_length'
p19
I73173
sS'current_frame'
p20
I23041
sS'hash'
p21
S'4ba872b5b14f98c5b130bbe89a0ab450'
p22
sS'name'
p23
VG:\u005cREMUX\u005c0001\u005cpreset_720p_smd6.avs
p24
sasS'lastclosed'
p25
(dp26
S'workdir'
p27
VE:\u005cgitpri\u005cBDToolset\u005cAvsPmod\u005cavs
p28
sS'group'
p29
NsS'splits'
p30
(NI-300
I00
tp31
sS'f_encoding'
p32
S'utf8'
p33
sS'text'
p34
V\u000aPATH = "E:\u005cgitpri\u005cBDToolset\u005cAvsPmod\u005cavs\u005cplugins\u005c"\u000aLoadPlugin(PATH + "mvtools2.dll")\u000aLoadPlugin(PATH + "mt_masktools-26.dll")\u000aLoadPlugin(PATH + "ffms2.dll")\u000aImport(PATH + "SMDegrain v.2.2d.avsi")\u000a\u000aSetMemoryMax(2500)\u000affvideosource("G:\u005cREMUX\u005c0001\u005cPlanet.Earth.EP05.2006.Ric.mkv")\u000aSpline64Resize(1280, 720)\u000asmdegrain(tr = 6)\u000a
p35
sS'selected'
p36
I01
sS'group_frame'
p37
I0
sS'last_length'
p38
I73173
sS'current_frame'
p39
I32560
sS'hash'
p40
S'ad042fb34e03ee7e52e0a90d299f2aef'
p41
sS'name'
p42
VE:\u005cgitpri\u005cBDToolset\u005cAvsPmod\u005cavs\u005csample.avs
p43
ssS'bookmarkDict'
p44
(dp45
sS'bookmarks'
p46
(lp47
s.